---
triple:          'arm64-apple-darwin'
binary-path:     '/Users/lewismsasa/Documents/Projects/C++/primer/iolibrary'
relocations:
  - { offset: 0x3615, size: 0x8, addend: 0x0, symName: __ZNSt3__124__put_character_sequenceB8ne190102IcNS_11char_traitsIcEEEERNS_13basic_ostreamIT_T0_EES7_PKS4_m, symObjAddr: 0x1B80, symBinAddr: 0x100006DC0, symSize: 0x1E4 }
  - { offset: 0x4446, size: 0x8, addend: 0x0, symName: __ZNSt3__1rsB8ne190102IcNS_11char_traitsIcEENS_9allocatorIcEEEERNS_13basic_istreamIT_T0_EES9_RNS_12basic_stringIS6_S7_T1_EE, symObjAddr: 0x4E4, symBinAddr: 0x100005724, symSize: 0x300 }
  - { offset: 0x4515, size: 0x8, addend: 0x0, symName: __ZNSt3__1eqB8ne190102IcNS_11char_traitsIcEENS_9allocatorIcEEEEbRKNS_12basic_stringIT_T0_T1_EEPKS6_, symObjAddr: 0x80C, symBinAddr: 0x100005A4C, symSize: 0xA4 }
  - { offset: 0x457C, size: 0x8, addend: 0x0, symName: __ZNSt3__14endlB8ne190102IcNS_11char_traitsIcEEEERNS_13basic_ostreamIT_T0_EES7_, symObjAddr: 0x8DC, symBinAddr: 0x100005B1C, symSize: 0x54 }
  - { offset: 0x45BC, size: 0x8, addend: 0x0, symName: __ZNSt3__1lsB8ne190102INS_11char_traitsIcEEEERNS_13basic_ostreamIcT_EES6_PKc, symObjAddr: 0x95C, symBinAddr: 0x100005B9C, symSize: 0x48 }
  - { offset: 0x4602, size: 0x8, addend: 0x0, symName: __ZNSt3__15flushB8ne190102IcNS_11char_traitsIcEEEERNS_13basic_ostreamIT_T0_EES7_, symObjAddr: 0x9A4, symBinAddr: 0x100005BE4, symSize: 0x28 }
  - { offset: 0x4642, size: 0x8, addend: 0x0, symName: __ZNSt3__14endsB8ne190102IcNS_11char_traitsIcEEEERNS_13basic_ostreamIT_T0_EES7_, symObjAddr: 0x9CC, symBinAddr: 0x100005C0C, symSize: 0x2C }
  - { offset: 0x4682, size: 0x8, addend: 0x0, symName: __ZNSt3__17unitbufB8ne190102ERNS_8ios_baseE, symObjAddr: 0xA38, symBinAddr: 0x100005C78, symSize: 0x2C }
  - { offset: 0x46B0, size: 0x8, addend: 0x0, symName: __ZNSt3__19nounitbufB8ne190102ERNS_8ios_baseE, symObjAddr: 0xA64, symBinAddr: 0x100005CA4, symSize: 0x2C }
  - { offset: 0x54F1, size: 0x8, addend: 0x0, symName: __ZNSt3__17getlineB8ne190102IcNS_11char_traitsIcEENS_9allocatorIcEEEERNS_13basic_istreamIT_T0_EES9_RNS_12basic_stringIS6_S7_T1_EE, symObjAddr: 0xC18, symBinAddr: 0x100005E58, symSize: 0x58 }
  - { offset: 0x5549, size: 0x8, addend: 0x0, symName: __ZNSt3__1lsB8ne190102IcNS_11char_traitsIcEENS_9allocatorIcEEEERNS_13basic_ostreamIT_T0_EES9_RKNS_12basic_stringIS6_S7_T1_EE, symObjAddr: 0xC70, symBinAddr: 0x100005EB0, symSize: 0x4C }
  - { offset: 0x5923, size: 0x8, addend: 0x0, symName: __ZNSt3__19use_facetB8ne190102INS_5ctypeIcEEEERKT_RKNS_6localeE, symObjAddr: 0x13B8, symBinAddr: 0x1000065F8, symSize: 0x2C }
  - { offset: 0x5F36, size: 0x8, addend: 0x0, symName: __ZNSt3__118__constexpr_strlenB8ne190102IcEEmPKT_, symObjAddr: 0x1A74, symBinAddr: 0x100006CB4, symSize: 0x24 }
  - { offset: 0x5F6B, size: 0x8, addend: 0x0, symName: __ZNSt3__116__pad_and_outputB8ne190102IcNS_11char_traitsIcEEEENS_19ostreambuf_iteratorIT_T0_EES6_PKS4_S8_S8_RNS_8ios_baseES4_, symObjAddr: 0x1D80, symBinAddr: 0x100006FC0, symSize: 0x214 }
  - { offset: 0x603A, size: 0x8, addend: 0x0, symName: __ZNSt3__112__to_addressB8ne190102IKcEEPT_S3_, symObjAddr: 0x21DC, symBinAddr: 0x10000741C, symSize: 0x14 }
  - { offset: 0x60A2, size: 0x8, addend: 0x0, symName: __ZNSt3__17getlineB8ne190102IcNS_11char_traitsIcEENS_9allocatorIcEEEERNS_13basic_istreamIT_T0_EES9_RNS_12basic_stringIS6_S7_T1_EES6_, symObjAddr: 0x24A4, symBinAddr: 0x1000076E4, symSize: 0x220 }
  - { offset: 0x7160, size: 0x8, addend: 0x0, symName: _main, symObjAddr: 0x0, symBinAddr: 0x100005240, symSize: 0x468 }
  - { offset: 0x71C5, size: 0x8, addend: 0x0, symName: __ZNKSt3__19basic_iosIcNS_11char_traitsIcEEE7rdstateB8ne190102Ev, symObjAddr: 0x468, symBinAddr: 0x1000056A8, symSize: 0x24 }
  - { offset: 0x71E9, size: 0x8, addend: 0x0, symName: __ZNSt3__19basic_iosIcNS_11char_traitsIcEEE5clearB8ne190102Ej, symObjAddr: 0x48C, symBinAddr: 0x1000056CC, symSize: 0x2C }
  - { offset: 0x721C, size: 0x8, addend: 0x0, symName: __ZNSt3__112basic_stringIcNS_11char_traitsIcEENS_9allocatorIcEEEC1B8ne190102Ev, symObjAddr: 0x4B8, symBinAddr: 0x1000056F8, symSize: 0x2C }
  - { offset: 0x7244, size: 0x8, addend: 0x0, symName: __ZNKSt3__19basic_iosIcNS_11char_traitsIcEEEcvbB8ne190102Ev, symObjAddr: 0x7E4, symBinAddr: 0x100005A24, symSize: 0x28 }
  - { offset: 0x7268, size: 0x8, addend: 0x0, symName: __ZNSt3__113basic_ostreamIcNS_11char_traitsIcEEElsB8ne190102EPFRS3_S4_E, symObjAddr: 0x8B0, symBinAddr: 0x100005AF0, symSize: 0x2C }
  - { offset: 0x729A, size: 0x8, addend: 0x0, symName: __ZNSt3__19basic_iosIcNS_11char_traitsIcEEE8setstateB8ne190102Ej, symObjAddr: 0x930, symBinAddr: 0x100005B70, symSize: 0x2C }
  - { offset: 0x72CD, size: 0x8, addend: 0x0, symName: __ZNSt3__113basic_ostreamIcNS_11char_traitsIcEEElsB8ne190102EPFRNS_8ios_baseES5_E, symObjAddr: 0x9F8, symBinAddr: 0x100005C38, symSize: 0x40 }
  - { offset: 0x72FF, size: 0x8, addend: 0x0, symName: __ZNSt3__19basic_iosIcNS_11char_traitsIcEEE3tieB8ne190102EPNS_13basic_ostreamIcS2_EE, symObjAddr: 0xA90, symBinAddr: 0x100005CD0, symSize: 0x2C }
  - { offset: 0x7681, size: 0x8, addend: 0x0, symName: __ZNSt3__114basic_ifstreamIcNS_11char_traitsIcEEEC1EPKcj, symObjAddr: 0xABC, symBinAddr: 0x100005CFC, symSize: 0x15C }
  - { offset: 0x76C9, size: 0x8, addend: 0x0, symName: __ZNSt3__114basic_ifstreamIcNS_11char_traitsIcEEE5closeEv, symObjAddr: 0xCBC, symBinAddr: 0x100005EFC, symSize: 0x50 }
  - { offset: 0x7708, size: 0x8, addend: 0x0, symName: __ZNSt3__114basic_ofstreamIcNS_11char_traitsIcEEEC1EPKcj, symObjAddr: 0xD0C, symBinAddr: 0x100005F4C, symSize: 0x15C }
  - { offset: 0x7750, size: 0x8, addend: 0x0, symName: __ZNSt3__114basic_ofstreamIcNS_11char_traitsIcEEE5closeEv, symObjAddr: 0xE68, symBinAddr: 0x1000060A8, symSize: 0x50 }
  - { offset: 0x777B, size: 0x8, addend: 0x0, symName: __ZNSt3__114basic_ofstreamIcNS_11char_traitsIcEEED1Ev, symObjAddr: 0xEB8, symBinAddr: 0x1000060F8, symSize: 0x40 }
  - { offset: 0x77AB, size: 0x8, addend: 0x0, symName: __ZNSt3__114basic_ifstreamIcNS_11char_traitsIcEEED1Ev, symObjAddr: 0xEF8, symBinAddr: 0x100006138, symSize: 0x40 }
  - { offset: 0x77D6, size: 0x8, addend: 0x0, symName: __ZNSt3__18ios_base4setfB8ne190102Ej, symObjAddr: 0xF38, symBinAddr: 0x100006178, symSize: 0x34 }
  - { offset: 0x781A, size: 0x8, addend: 0x0, symName: __ZNSt3__18ios_base6unsetfB8ne190102Ej, symObjAddr: 0xF6C, symBinAddr: 0x1000061AC, symSize: 0x28 }
  - { offset: 0x784F, size: 0x8, addend: 0x0, symName: __ZNSt3__114basic_ofstreamIcNS_11char_traitsIcEEED2Ev, symObjAddr: 0xF94, symBinAddr: 0x1000061D4, symSize: 0x64 }
  - { offset: 0x7886, size: 0x8, addend: 0x0, symName: __ZTv0_n24_NSt3__114basic_ofstreamIcNS_11char_traitsIcEEED1Ev, symObjAddr: 0xFF8, symBinAddr: 0x100006238, symSize: 0x28 }
  - { offset: 0x789C, size: 0x8, addend: 0x0, symName: __ZNSt3__114basic_ifstreamIcNS_11char_traitsIcEEED2Ev, symObjAddr: 0x1020, symBinAddr: 0x100006260, symSize: 0x64 }
  - { offset: 0x78D3, size: 0x8, addend: 0x0, symName: __ZTv0_n24_NSt3__114basic_ifstreamIcNS_11char_traitsIcEEED1Ev, symObjAddr: 0x1084, symBinAddr: 0x1000062C4, symSize: 0x28 }
  - { offset: 0x78E9, size: 0x8, addend: 0x0, symName: __ZNKSt3__18ios_base7rdstateB8ne190102Ev, symObjAddr: 0x10AC, symBinAddr: 0x1000062EC, symSize: 0x18 }
  - { offset: 0x790F, size: 0x8, addend: 0x0, symName: __ZNSt3__112basic_stringIcNS_11char_traitsIcEENS_9allocatorIcEEEC2B8ne190102Ev, symObjAddr: 0x10C4, symBinAddr: 0x100006304, symSize: 0x48 }
  - { offset: 0x7941, size: 0x8, addend: 0x0, symName: __ZNSt3__117__compressed_pairINS_12basic_stringIcNS_11char_traitsIcEENS_9allocatorIcEEE5__repES5_EC1B8ne190102INS_16__value_init_tagENS_18__default_init_tagEEEOT_OT0_, symObjAddr: 0x110C, symBinAddr: 0x10000634C, symSize: 0x3C }
  - { offset: 0x7997, size: 0x8, addend: 0x0, symName: __ZNKSt3__112basic_stringIcNS_11char_traitsIcEENS_9allocatorIcEEE14__annotate_newB8ne190102Em, symObjAddr: 0x1158, symBinAddr: 0x100006398, symSize: 0x14 }
  - { offset: 0x79CA, size: 0x8, addend: 0x0, symName: __ZNSt3__117__compressed_pairINS_12basic_stringIcNS_11char_traitsIcEENS_9allocatorIcEEE5__repES5_EC2B8ne190102INS_16__value_init_tagENS_18__default_init_tagEEEOT_OT0_, symObjAddr: 0x116C, symBinAddr: 0x1000063AC, symSize: 0x3C }
  - { offset: 0x7A20, size: 0x8, addend: 0x0, symName: __ZNSt3__122__compressed_pair_elemINS_12basic_stringIcNS_11char_traitsIcEENS_9allocatorIcEEE5__repELi0ELb0EEC2B8ne190102ENS_16__value_init_tagE, symObjAddr: 0x11A8, symBinAddr: 0x1000063E8, symSize: 0x20 }
  - { offset: 0x7A52, size: 0x8, addend: 0x0, symName: __ZNSt3__122__compressed_pair_elemINS_9allocatorIcEELi1ELb1EEC2B8ne190102ENS_18__default_init_tagE, symObjAddr: 0x11C8, symBinAddr: 0x100006408, symSize: 0x2C }
  - { offset: 0x7A84, size: 0x8, addend: 0x0, symName: __ZNSt3__19allocatorIcEC2B8ne190102Ev, symObjAddr: 0x11F4, symBinAddr: 0x100006434, symSize: 0x2C }
  - { offset: 0x7AAC, size: 0x8, addend: 0x0, symName: __ZNSt3__116__non_trivial_ifILb1ENS_9allocatorIcEEEC2B8ne190102Ev, symObjAddr: 0x1220, symBinAddr: 0x100006460, symSize: 0x14 }
  - { offset: 0x7AF2, size: 0x8, addend: 0x0, symName: __ZNKSt3__113basic_istreamIcNS_11char_traitsIcEEE6sentrycvbB8ne190102Ev, symObjAddr: 0x1234, symBinAddr: 0x100006474, symSize: 0x1C }
  - { offset: 0x7B16, size: 0x8, addend: 0x0, symName: __ZNSt3__112basic_stringIcNS_11char_traitsIcEENS_9allocatorIcEEE5clearB8ne190102Ev, symObjAddr: 0x1250, symBinAddr: 0x100006490, symSize: 0x94 }
  - { offset: 0x7B4B, size: 0x8, addend: 0x0, symName: __ZNKSt3__18ios_base5widthB8ne190102Ev, symObjAddr: 0x12E4, symBinAddr: 0x100006524, symSize: 0x18 }
  - { offset: 0x7B71, size: 0x8, addend: 0x0, symName: __ZNKSt3__112basic_stringIcNS_11char_traitsIcEENS_9allocatorIcEEE8max_sizeB8ne190102Ev, symObjAddr: 0x12FC, symBinAddr: 0x10000653C, symSize: 0xA8 }
  - { offset: 0x7BC1, size: 0x8, addend: 0x0, symName: __ZNSt3__114numeric_limitsIlE3maxB8ne190102Ev, symObjAddr: 0x13A4, symBinAddr: 0x1000065E4, symSize: 0x14 }
  - { offset: 0x7BD4, size: 0x8, addend: 0x0, symName: __ZNKSt3__19basic_iosIcNS_11char_traitsIcEEE5rdbufB8ne190102Ev, symObjAddr: 0x13E4, symBinAddr: 0x100006624, symSize: 0x24 }
  - { offset: 0x7BFA, size: 0x8, addend: 0x0, symName: __ZNSt3__115basic_streambufIcNS_11char_traitsIcEEE5sgetcB8ne190102Ev, symObjAddr: 0x1408, symBinAddr: 0x100006648, symSize: 0x6C }
  - { offset: 0x7C1E, size: 0x8, addend: 0x0, symName: __ZNSt3__111char_traitsIcE11eq_int_typeB8ne190102Eii, symObjAddr: 0x1474, symBinAddr: 0x1000066B4, symSize: 0x24 }
  - { offset: 0x7C4E, size: 0x8, addend: 0x0, symName: __ZNSt3__111char_traitsIcE3eofB8ne190102Ev, symObjAddr: 0x1498, symBinAddr: 0x1000066D8, symSize: 0x8 }
  - { offset: 0x7C61, size: 0x8, addend: 0x0, symName: __ZNSt3__111char_traitsIcE12to_char_typeB8ne190102Ei, symObjAddr: 0x14A0, symBinAddr: 0x1000066E0, symSize: 0x18 }
  - { offset: 0x7CB0, size: 0x8, addend: 0x0, symName: __ZNKSt3__15ctypeIcE2isB8ne190102Ejc, symObjAddr: 0x14B8, symBinAddr: 0x1000066F8, symSize: 0x74 }
  - { offset: 0x7CF2, size: 0x8, addend: 0x0, symName: __ZNSt3__115basic_streambufIcNS_11char_traitsIcEEE6sbumpcB8ne190102Ev, symObjAddr: 0x152C, symBinAddr: 0x10000676C, symSize: 0x74 }
  - { offset: 0x7D16, size: 0x8, addend: 0x0, symName: __ZNSt3__18ios_base5widthB8ne190102El, symObjAddr: 0x15A0, symBinAddr: 0x1000067E0, symSize: 0x2C }
  - { offset: 0x7D5A, size: 0x8, addend: 0x0, symName: __ZNSt3__18ios_base18__setstate_nothrowB8ne190102Ej, symObjAddr: 0x15CC, symBinAddr: 0x10000680C, symSize: 0x5C }
  - { offset: 0x7D8D, size: 0x8, addend: 0x0, symName: __ZNKSt3__19basic_iosIcNS_11char_traitsIcEEE10exceptionsB8ne190102Ev, symObjAddr: 0x1628, symBinAddr: 0x100006868, symSize: 0x24 }
  - { offset: 0x7DB1, size: 0x8, addend: 0x0, symName: __ZNKSt3__112basic_stringIcNS_11char_traitsIcEENS_9allocatorIcEEE4sizeB8ne190102Ev, symObjAddr: 0x164C, symBinAddr: 0x10000688C, symSize: 0x54 }
  - { offset: 0x7DD5, size: 0x8, addend: 0x0, symName: __ZNKSt3__112basic_stringIcNS_11char_traitsIcEENS_9allocatorIcEEE9__is_longB8ne190102Ev, symObjAddr: 0x16A0, symBinAddr: 0x1000068E0, symSize: 0x34 }
  - { offset: 0x7DF9, size: 0x8, addend: 0x0, symName: __ZNSt3__111char_traitsIcE6assignB8ne190102ERcRKc, symObjAddr: 0x16D4, symBinAddr: 0x100006914, symSize: 0x24 }
  - { offset: 0x7E29, size: 0x8, addend: 0x0, symName: __ZNSt3__112basic_stringIcNS_11char_traitsIcEENS_9allocatorIcEEE18__get_long_pointerB8ne190102Ev, symObjAddr: 0x16F8, symBinAddr: 0x100006938, symSize: 0x28 }
  - { offset: 0x7E4D, size: 0x8, addend: 0x0, symName: __ZNSt3__112basic_stringIcNS_11char_traitsIcEENS_9allocatorIcEEE15__set_long_sizeB8ne190102Em, symObjAddr: 0x1720, symBinAddr: 0x100006960, symSize: 0x38 }
  - { offset: 0x7E80, size: 0x8, addend: 0x0, symName: __ZNSt3__112basic_stringIcNS_11char_traitsIcEENS_9allocatorIcEEE19__get_short_pointerB8ne190102Ev, symObjAddr: 0x1758, symBinAddr: 0x100006998, symSize: 0x28 }
  - { offset: 0x7EA4, size: 0x8, addend: 0x0, symName: __ZNSt3__112basic_stringIcNS_11char_traitsIcEENS_9allocatorIcEEE16__set_short_sizeB8ne190102Em, symObjAddr: 0x1780, symBinAddr: 0x1000069C0, symSize: 0x78 }
  - { offset: 0x7ED7, size: 0x8, addend: 0x0, symName: __ZNKSt3__112basic_stringIcNS_11char_traitsIcEENS_9allocatorIcEEE17__annotate_shrinkB8ne190102Em, symObjAddr: 0x17F8, symBinAddr: 0x100006A38, symSize: 0x14 }
  - { offset: 0x7F0A, size: 0x8, addend: 0x0, symName: __ZNKSt3__112basic_stringIcNS_11char_traitsIcEENS_9allocatorIcEEE15__get_long_sizeB8ne190102Ev, symObjAddr: 0x180C, symBinAddr: 0x100006A4C, symSize: 0x28 }
  - { offset: 0x7F2E, size: 0x8, addend: 0x0, symName: __ZNKSt3__112basic_stringIcNS_11char_traitsIcEENS_9allocatorIcEEE16__get_short_sizeB8ne190102Ev, symObjAddr: 0x1834, symBinAddr: 0x100006A74, symSize: 0x34 }
  - { offset: 0x7F52, size: 0x8, addend: 0x0, symName: __ZNKSt3__117__compressed_pairINS_12basic_stringIcNS_11char_traitsIcEENS_9allocatorIcEEE5__repES5_E5firstB8ne190102Ev, symObjAddr: 0x1868, symBinAddr: 0x100006AA8, symSize: 0x24 }
  - { offset: 0x7F76, size: 0x8, addend: 0x0, symName: __ZNKSt3__122__compressed_pair_elemINS_12basic_stringIcNS_11char_traitsIcEENS_9allocatorIcEEE5__repELi0ELb0EE5__getB8ne190102Ev, symObjAddr: 0x188C, symBinAddr: 0x100006ACC, symSize: 0x14 }
  - { offset: 0x7F9A, size: 0x8, addend: 0x0, symName: __ZNSt3__117__compressed_pairINS_12basic_stringIcNS_11char_traitsIcEENS_9allocatorIcEEE5__repES5_E5firstB8ne190102Ev, symObjAddr: 0x18A0, symBinAddr: 0x100006AE0, symSize: 0x24 }
  - { offset: 0x7FBE, size: 0x8, addend: 0x0, symName: __ZNSt3__122__compressed_pair_elemINS_12basic_stringIcNS_11char_traitsIcEENS_9allocatorIcEEE5__repELi0ELb0EE5__getB8ne190102Ev, symObjAddr: 0x18C4, symBinAddr: 0x100006B04, symSize: 0x14 }
  - { offset: 0x7FE2, size: 0x8, addend: 0x0, symName: __ZNSt3__114pointer_traitsIPcE10pointer_toB8ne190102ERc, symObjAddr: 0x18D8, symBinAddr: 0x100006B18, symSize: 0x14 }
  - { offset: 0x800E, size: 0x8, addend: 0x0, symName: __ZNSt3__116allocator_traitsINS_9allocatorIcEEE8max_sizeB8ne190102IS2_TnNS_9enable_ifIXsr14__has_max_sizeIKT_EE5valueEiE4typeELi0EEEmRKS2_, symObjAddr: 0x18EC, symBinAddr: 0x100006B2C, symSize: 0x24 }
  - { offset: 0x8040, size: 0x8, addend: 0x0, symName: __ZNKSt3__112basic_stringIcNS_11char_traitsIcEENS_9allocatorIcEEE7__allocB8ne190102Ev, symObjAddr: 0x1910, symBinAddr: 0x100006B50, symSize: 0x24 }
  - { offset: 0x8064, size: 0x8, addend: 0x0, symName: __ZNSt3__114numeric_limitsImE3maxB8ne190102Ev, symObjAddr: 0x1934, symBinAddr: 0x100006B74, symSize: 0x14 }
  - { offset: 0x8077, size: 0x8, addend: 0x0, symName: __ZNKSt3__19allocatorIcE8max_sizeB8ne190102Ev, symObjAddr: 0x1948, symBinAddr: 0x100006B88, symSize: 0x14 }
  - { offset: 0x809B, size: 0x8, addend: 0x0, symName: __ZNKSt3__117__compressed_pairINS_12basic_stringIcNS_11char_traitsIcEENS_9allocatorIcEEE5__repES5_E6secondB8ne190102Ev, symObjAddr: 0x195C, symBinAddr: 0x100006B9C, symSize: 0x24 }
  - { offset: 0x80BF, size: 0x8, addend: 0x0, symName: __ZNKSt3__122__compressed_pair_elemINS_9allocatorIcEELi1ELb1EE5__getB8ne190102Ev, symObjAddr: 0x1980, symBinAddr: 0x100006BC0, symSize: 0x14 }
  - { offset: 0x80E3, size: 0x8, addend: 0x0, symName: __ZNSt3__123__libcpp_numeric_limitsImLb1EE3maxB8ne190102Ev, symObjAddr: 0x1994, symBinAddr: 0x100006BD4, symSize: 0x8 }
  - { offset: 0x80F6, size: 0x8, addend: 0x0, symName: __ZNSt3__123__libcpp_numeric_limitsIlLb1EE3maxB8ne190102Ev, symObjAddr: 0x199C, symBinAddr: 0x100006BDC, symSize: 0x8 }
  - { offset: 0x8109, size: 0x8, addend: 0x0, symName: __ZNKSt3__18ios_base5rdbufB8ne190102Ev, symObjAddr: 0x19A4, symBinAddr: 0x100006BE4, symSize: 0x18 }
  - { offset: 0x812D, size: 0x8, addend: 0x0, symName: __ZNSt3__111char_traitsIcE11to_int_typeB8ne190102Ec, symObjAddr: 0x19BC, symBinAddr: 0x100006BFC, symSize: 0x14 }
  - { offset: 0x814F, size: 0x8, addend: 0x0, symName: __Z7isasciii, symObjAddr: 0x19D0, symBinAddr: 0x100006C10, symSize: 0x20 }
  - { offset: 0x817B, size: 0x8, addend: 0x0, symName: __ZNKSt3__18ios_base10exceptionsB8ne190102Ev, symObjAddr: 0x19F0, symBinAddr: 0x100006C30, symSize: 0x18 }
  - { offset: 0x81A1, size: 0x8, addend: 0x0, symName: __ZNKSt3__19basic_iosIcNS_11char_traitsIcEEE4failB8ne190102Ev, symObjAddr: 0x1A08, symBinAddr: 0x100006C48, symSize: 0x24 }
  - { offset: 0x81C5, size: 0x8, addend: 0x0, symName: __ZNKSt3__18ios_base4failB8ne190102Ev, symObjAddr: 0x1A2C, symBinAddr: 0x100006C6C, symSize: 0x24 }
  - { offset: 0x81EB, size: 0x8, addend: 0x0, symName: __ZNSt3__111char_traitsIcE6lengthB8ne190102EPKc, symObjAddr: 0x1A50, symBinAddr: 0x100006C90, symSize: 0x24 }
  - { offset: 0x820D, size: 0x8, addend: 0x0, symName: __ZNKSt3__19basic_iosIcNS_11char_traitsIcEEE5widenB8ne190102Ec, symObjAddr: 0x1A98, symBinAddr: 0x100006CD8, symSize: 0x80 }
  - { offset: 0x8242, size: 0x8, addend: 0x0, symName: __ZNKSt3__15ctypeIcE5widenB8ne190102Ec, symObjAddr: 0x1B18, symBinAddr: 0x100006D58, symSize: 0x34 }
  - { offset: 0x8275, size: 0x8, addend: 0x0, symName: __ZNSt3__18ios_base8setstateB8ne190102Ej, symObjAddr: 0x1B4C, symBinAddr: 0x100006D8C, symSize: 0x34 }
  - { offset: 0x82C8, size: 0x8, addend: 0x0, symName: __ZNKSt3__113basic_ostreamIcNS_11char_traitsIcEEE6sentrycvbB8ne190102Ev, symObjAddr: 0x1D64, symBinAddr: 0x100006FA4, symSize: 0x1C }
  - { offset: 0x82EC, size: 0x8, addend: 0x0, symName: __ZNSt3__119ostreambuf_iteratorIcNS_11char_traitsIcEEEC1B8ne190102ERNS_13basic_ostreamIcS2_EE, symObjAddr: 0x1F94, symBinAddr: 0x1000071D4, symSize: 0x34 }
  - { offset: 0x8322, size: 0x8, addend: 0x0, symName: __ZNKSt3__18ios_base5flagsB8ne190102Ev, symObjAddr: 0x1FC8, symBinAddr: 0x100007208, symSize: 0x18 }
  - { offset: 0x8348, size: 0x8, addend: 0x0, symName: __ZNKSt3__19basic_iosIcNS_11char_traitsIcEEE4fillB8ne190102Ev, symObjAddr: 0x1FE0, symBinAddr: 0x100007220, symSize: 0x64 }
  - { offset: 0x836E, size: 0x8, addend: 0x0, symName: __ZNKSt3__119ostreambuf_iteratorIcNS_11char_traitsIcEEE6failedB8ne190102Ev, symObjAddr: 0x2044, symBinAddr: 0x100007284, symSize: 0x20 }
  - { offset: 0x8392, size: 0x8, addend: 0x0, symName: __ZNSt3__115basic_streambufIcNS_11char_traitsIcEEE5sputnB8ne190102EPKcl, symObjAddr: 0x2064, symBinAddr: 0x1000072A4, symSize: 0x3C }
  - { offset: 0x83D2, size: 0x8, addend: 0x0, symName: __ZNSt3__112basic_stringIcNS_11char_traitsIcEENS_9allocatorIcEEEC1B8ne190102Emc, symObjAddr: 0x20A0, symBinAddr: 0x1000072E0, symSize: 0x3C }
  - { offset: 0x8418, size: 0x8, addend: 0x0, symName: __ZNKSt3__112basic_stringIcNS_11char_traitsIcEENS_9allocatorIcEEE4dataB8ne190102Ev, symObjAddr: 0x20DC, symBinAddr: 0x10000731C, symSize: 0x28 }
  - { offset: 0x843C, size: 0x8, addend: 0x0, symName: __ZNSt3__112basic_stringIcNS_11char_traitsIcEENS_9allocatorIcEEEC2B8ne190102Emc, symObjAddr: 0x2104, symBinAddr: 0x100007344, symSize: 0x4C }
  - { offset: 0x8482, size: 0x8, addend: 0x0, symName: __ZNSt3__117__compressed_pairINS_12basic_stringIcNS_11char_traitsIcEENS_9allocatorIcEEE5__repES5_EC1B8ne190102INS_18__default_init_tagESA_EEOT_OT0_, symObjAddr: 0x2150, symBinAddr: 0x100007390, symSize: 0x3C }
  - { offset: 0x84D8, size: 0x8, addend: 0x0, symName: __ZNSt3__117__compressed_pairINS_12basic_stringIcNS_11char_traitsIcEENS_9allocatorIcEEE5__repES5_EC2B8ne190102INS_18__default_init_tagESA_EEOT_OT0_, symObjAddr: 0x218C, symBinAddr: 0x1000073CC, symSize: 0x3C }
  - { offset: 0x852E, size: 0x8, addend: 0x0, symName: __ZNSt3__122__compressed_pair_elemINS_12basic_stringIcNS_11char_traitsIcEENS_9allocatorIcEEE5__repELi0ELb0EEC2B8ne190102ENS_18__default_init_tagE, symObjAddr: 0x21C8, symBinAddr: 0x100007408, symSize: 0x14 }
  - { offset: 0x8560, size: 0x8, addend: 0x0, symName: __ZNKSt3__112basic_stringIcNS_11char_traitsIcEENS_9allocatorIcEEE13__get_pointerB8ne190102Ev, symObjAddr: 0x21F0, symBinAddr: 0x100007430, symSize: 0x54 }
  - { offset: 0x8584, size: 0x8, addend: 0x0, symName: __ZNKSt3__112basic_stringIcNS_11char_traitsIcEENS_9allocatorIcEEE18__get_long_pointerB8ne190102Ev, symObjAddr: 0x2244, symBinAddr: 0x100007484, symSize: 0x28 }
  - { offset: 0x85A8, size: 0x8, addend: 0x0, symName: __ZNKSt3__112basic_stringIcNS_11char_traitsIcEENS_9allocatorIcEEE19__get_short_pointerB8ne190102Ev, symObjAddr: 0x226C, symBinAddr: 0x1000074AC, symSize: 0x28 }
  - { offset: 0x85CC, size: 0x8, addend: 0x0, symName: __ZNSt3__114pointer_traitsIPKcE10pointer_toB8ne190102ERS1_, symObjAddr: 0x2294, symBinAddr: 0x1000074D4, symSize: 0x14 }
  - { offset: 0x85EE, size: 0x8, addend: 0x0, symName: __ZNSt3__119ostreambuf_iteratorIcNS_11char_traitsIcEEEC2B8ne190102ERNS_13basic_ostreamIcS2_EE, symObjAddr: 0x22A8, symBinAddr: 0x1000074E8, symSize: 0x54 }
  - { offset: 0x8624, size: 0x8, addend: 0x0, symName: __ZNKSt3__118_SentinelValueFillINS_11char_traitsIcEEE8__is_setB8ne190102Ev, symObjAddr: 0x22FC, symBinAddr: 0x10000753C, symSize: 0x38 }
  - { offset: 0x8648, size: 0x8, addend: 0x0, symName: __ZNSt3__118_SentinelValueFillINS_11char_traitsIcEEEaSB8ne190102Ei, symObjAddr: 0x2334, symBinAddr: 0x100007574, symSize: 0x20 }
  - { offset: 0x867B, size: 0x8, addend: 0x0, symName: __ZNKSt3__118_SentinelValueFillINS_11char_traitsIcEEE5__getB8ne190102Ev, symObjAddr: 0x2354, symBinAddr: 0x100007594, symSize: 0x18 }
  - { offset: 0x869F, size: 0x8, addend: 0x0, symName: __ZNSt3__19basic_iosIcNS_11char_traitsIcEEEC2B8ne190102Ev, symObjAddr: 0x236C, symBinAddr: 0x1000075AC, symSize: 0x3C }
  - { offset: 0x86C7, size: 0x8, addend: 0x0, symName: __ZNSt3__113basic_istreamIcNS_11char_traitsIcEEEC2B8ne190102EPNS_15basic_streambufIcS2_EE, symObjAddr: 0x23A8, symBinAddr: 0x1000075E8, symSize: 0x64 }
  - { offset: 0x8709, size: 0x8, addend: 0x0, symName: __ZNSt3__18ios_baseC2B8ne190102Ev, symObjAddr: 0x240C, symBinAddr: 0x10000764C, symSize: 0x28 }
  - { offset: 0x8731, size: 0x8, addend: 0x0, symName: __ZNSt3__19basic_iosIcNS_11char_traitsIcEEE4initB8ne190102EPNS_15basic_streambufIcS2_EE, symObjAddr: 0x2434, symBinAddr: 0x100007674, symSize: 0x40 }
  - { offset: 0x8766, size: 0x8, addend: 0x0, symName: __ZNSt3__118_SentinelValueFillINS_11char_traitsIcEEE6__initB8ne190102Ev, symObjAddr: 0x2474, symBinAddr: 0x1000076B4, symSize: 0x30 }
  - { offset: 0x878A, size: 0x8, addend: 0x0, symName: __ZNSt3__111char_traitsIcE2eqEcc, symObjAddr: 0x26C4, symBinAddr: 0x100007904, symSize: 0x24 }
  - { offset: 0x87BA, size: 0x8, addend: 0x0, symName: __ZNSt3__113basic_ostreamIcNS_11char_traitsIcEEEC2B8ne190102EPNS_15basic_streambufIcS2_EE, symObjAddr: 0x26E8, symBinAddr: 0x100007928, symSize: 0x60 }
...
