---
triple:          'arm64-apple-darwin'
binary-path:     '/Users/lewismsasa/Documents/Projects/C++/primer/special_library_facilities/random_numbers'
relocations:
  - { offset: 0x33, size: 0x8, addend: 0x0, symName: __Z12good_randVecv, symObjAddr: 0x0, symBinAddr: 0x100004998, symSize: 0x1B4 }
  - { offset: 0x5C, size: 0x8, addend: 0x0, symName: __ZZ12good_randVecvE1e, symObjAddr: 0x285C0, symBinAddr: 0x10000C140, symSize: 0x0 }
  - { offset: 0x71, size: 0x8, addend: 0x0, symName: __ZZ12good_randVecvE1u, symObjAddr: 0x285D0, symBinAddr: 0x10000C150, symSize: 0x0 }
  - { offset: 0x4DA2, size: 0x8, addend: 0x0, symName: __ZNSt3__124__put_character_sequenceB8ne190102IcNS_11char_traitsIcEEEERNS_13basic_ostreamIT_T0_EES7_PKS4_m, symObjAddr: 0x2280, symBinAddr: 0x100006C18, symSize: 0x1E4 }
  - { offset: 0x627C, size: 0x8, addend: 0x0, symName: __ZNSt3__1lsB8ne190102INS_11char_traitsIcEEEERNS_13basic_ostreamIcT_EES6_PKc, symObjAddr: 0x4C4, symBinAddr: 0x100004E5C, symSize: 0x48 }
  - { offset: 0x62C2, size: 0x8, addend: 0x0, symName: __ZNSt3__14endlB8ne190102IcNS_11char_traitsIcEEEERNS_13basic_ostreamIT_T0_EES7_, symObjAddr: 0x56C, symBinAddr: 0x100004F04, symSize: 0x54 }
  - { offset: 0x64B1, size: 0x8, addend: 0x0, symName: __ZNSt3__112__to_addressB8ne190102IjEEPT_S2_, symObjAddr: 0xA34, symBinAddr: 0x1000053CC, symSize: 0x14 }
  - { offset: 0x64E6, size: 0x8, addend: 0x0, symName: __ZNSt3__119__libcpp_deallocateB8ne190102EPvmm, symObjAddr: 0xA9C, symBinAddr: 0x100005434, symSize: 0x30 }
  - { offset: 0x652E, size: 0x8, addend: 0x0, symName: __ZNSt3__127__do_deallocate_handle_sizeB8ne190102IJEEEvPvmDpT_, symObjAddr: 0xACC, symBinAddr: 0x100005464, symSize: 0x2C }
  - { offset: 0x656C, size: 0x8, addend: 0x0, symName: __ZNSt3__124__libcpp_operator_deleteB8ne190102IJPvmEEEvDpT_, symObjAddr: 0xAF8, symBinAddr: 0x100005490, symSize: 0x2C }
  - { offset: 0x65B5, size: 0x8, addend: 0x0, symName: __ZNSt3__113__countl_zeroB8ne190102IjEEiT_, symObjAddr: 0xECC, symBinAddr: 0x100005864, symSize: 0x24 }
  - { offset: 0x65EA, size: 0x8, addend: 0x0, symName: __ZNSt3__13maxB8ne190102ImEERKT_S3_S3_, symObjAddr: 0x191C, symBinAddr: 0x1000062B4, symSize: 0x2C }
  - { offset: 0x662D, size: 0x8, addend: 0x0, symName: __ZNSt3__13minB8ne190102ImEERKT_S3_S3_, symObjAddr: 0x1948, symBinAddr: 0x1000062E0, symSize: 0x2C }
  - { offset: 0x6871, size: 0x8, addend: 0x0, symName: __ZNSt3__13minB8ne190102ImNS_6__lessIvvEEEERKT_S5_S5_T0_, symObjAddr: 0x19D4, symBinAddr: 0x10000636C, symSize: 0x54 }
  - { offset: 0x6910, size: 0x8, addend: 0x0, symName: __ZNSt3__120__throw_length_errorB8ne190102EPKc, symObjAddr: 0x1AAC, symBinAddr: 0x100006444, symSize: 0x64 }
  - { offset: 0x6938, size: 0x8, addend: 0x0, symName: __ZNSt3__13maxB8ne190102ImNS_6__lessIvvEEEERKT_S5_S5_T0_, symObjAddr: 0x1B88, symBinAddr: 0x100006520, symSize: 0x54 }
  - { offset: 0x6992, size: 0x8, addend: 0x0, symName: __ZNSt3__119__allocate_at_leastB8ne190102INS_9allocatorIjEEEENS_19__allocation_resultINS_16allocator_traitsIT_E7pointerEEERS5_m, symObjAddr: 0x1CE4, symBinAddr: 0x10000667C, symSize: 0x40 }
  - { offset: 0x69D5, size: 0x8, addend: 0x0, symName: __ZNSt3__117__libcpp_allocateB8ne190102Emm, symObjAddr: 0x1E64, symBinAddr: 0x1000067FC, symSize: 0x28 }
  - { offset: 0x6A12, size: 0x8, addend: 0x0, symName: __ZNSt3__121__libcpp_operator_newB8ne190102IJmEEEPvDpT_, symObjAddr: 0x1E8C, symBinAddr: 0x100006824, symSize: 0x24 }
  - { offset: 0x6A4B, size: 0x8, addend: 0x0, symName: __ZNSt3__134__uninitialized_allocator_relocateB8ne190102INS_9allocatorIjEEjEEvRT_PT0_S6_S6_, symObjAddr: 0x1F14, symBinAddr: 0x1000068AC, symSize: 0x4C }
  - { offset: 0x6AB4, size: 0x8, addend: 0x0, symName: __ZNSt3__14swapB8ne190102IPjEENS_9enable_ifIXaasr21is_move_constructibleIT_EE5valuesr18is_move_assignableIS3_EE5valueEvE4typeERS3_S6_, symObjAddr: 0x1F60, symBinAddr: 0x1000068F8, symSize: 0x3C }
  - { offset: 0x6B6B, size: 0x8, addend: 0x0, symName: __ZNSt3__116__pad_and_outputB8ne190102IcNS_11char_traitsIcEEEENS_19ostreambuf_iteratorIT_T0_EES6_PKS4_S8_S8_RNS_8ios_baseES4_, symObjAddr: 0x24A4, symBinAddr: 0x100006E3C, symSize: 0x214 }
  - { offset: 0x6C3A, size: 0x8, addend: 0x0, symName: __ZNSt3__112__to_addressB8ne190102IKcEEPT_S3_, symObjAddr: 0x29DC, symBinAddr: 0x100007374, symSize: 0x14 }
  - { offset: 0x6CA2, size: 0x8, addend: 0x0, symName: __ZNSt3__19use_facetB8ne190102INS_5ctypeIcEEEERKT_RKNS_6localeE, symObjAddr: 0x2C9C, symBinAddr: 0x100007634, symSize: 0x2C }
  - { offset: 0x716F, size: 0x8, addend: 0x0, symName: __ZNSt3__118__constexpr_strlenB8ne190102IcEEmPKT_, symObjAddr: 0x2D30, symBinAddr: 0x1000076C8, symSize: 0x24 }
  - { offset: 0x71A4, size: 0x8, addend: 0x0, symName: __ZNSt3__118generate_canonicalB8ne190102IdLm53ENS_26linear_congruential_engineIjLj48271ELj0ELj2147483647EEEEET_RT1_, symObjAddr: 0x2E94, symBinAddr: 0x10000782C, symSize: 0x118 }
  - { offset: 0x80F5, size: 0x8, addend: 0x0, symName: __ZSt28__throw_bad_array_new_lengthB8ne190102v, symObjAddr: 0x1E30, symBinAddr: 0x1000067C8, symSize: 0x34 }
  - { offset: 0x85A4, size: 0x8, addend: 0x0, symName: __ZNSt3__124uniform_int_distributionIjEclINS_26linear_congruential_engineIjLj48271ELj0ELj2147483647EEEEEjRT_RKNS1_10param_typeE, symObjAddr: 0xCC8, symBinAddr: 0x100005660, symSize: 0x174 }
  - { offset: 0x87E5, size: 0x8, addend: 0x0, symName: __ZNSt3__126linear_congruential_engineIjLj48271ELj0ELj2147483647EEC1B8ne190102Ev, symObjAddr: 0x1B4, symBinAddr: 0x100004B4C, symSize: 0x30 }
  - { offset: 0x880D, size: 0x8, addend: 0x0, symName: __ZNSt3__124uniform_int_distributionIjEC1B8ne190102Ejj, symObjAddr: 0x1E4, symBinAddr: 0x100004B7C, symSize: 0x3C }
  - { offset: 0x8851, size: 0x8, addend: 0x0, symName: __ZNSt3__16vectorIjNS_9allocatorIjEEEC1B8ne190102Ev, symObjAddr: 0x220, symBinAddr: 0x100004BB8, symSize: 0x2C }
  - { offset: 0x8879, size: 0x8, addend: 0x0, symName: __ZNSt3__16vectorIjNS_9allocatorIjEEE9push_backB8ne190102EOj, symObjAddr: 0x24C, symBinAddr: 0x100004BE4, symSize: 0x8C }
  - { offset: 0x88BD, size: 0x8, addend: 0x0, symName: __ZNSt3__124uniform_int_distributionIjEclB8ne190102INS_26linear_congruential_engineIjLj48271ELj0ELj2147483647EEEEEjRT_, symObjAddr: 0x2D8, symBinAddr: 0x100004C70, symSize: 0x30 }
  - { offset: 0x88F8, size: 0x8, addend: 0x0, symName: __ZNSt3__16vectorIjNS_9allocatorIjEEED1B8ne190102Ev, symObjAddr: 0x308, symBinAddr: 0x100004CA0, symSize: 0x2C }
  - { offset: 0x8920, size: 0x8, addend: 0x0, symName: _main, symObjAddr: 0x334, symBinAddr: 0x100004CCC, symSize: 0x164 }
  - { offset: 0x89B8, size: 0x8, addend: 0x0, symName: __ZNSt3__126linear_congruential_engineIjLj48271ELj0ELj2147483647EE4seedB8ne190102Ej, symObjAddr: 0x498, symBinAddr: 0x100004E30, symSize: 0x2C }
  - { offset: 0x89EB, size: 0x8, addend: 0x0, symName: __ZNSt3__126linear_congruential_engineIjLj48271ELj0ELj2147483647EEclB8ne190102Ev, symObjAddr: 0x50C, symBinAddr: 0x100004EA4, symSize: 0x34 }
  - { offset: 0x8A0F, size: 0x8, addend: 0x0, symName: __ZNSt3__113basic_ostreamIcNS_11char_traitsIcEEElsB8ne190102EPFRS3_S4_E, symObjAddr: 0x540, symBinAddr: 0x100004ED8, symSize: 0x2C }
  - { offset: 0x8A64, size: 0x8, addend: 0x0, symName: __ZNSt3__125uniform_real_distributionIdEC1B8ne190102Edd, symObjAddr: 0x5C0, symBinAddr: 0x100004F58, symSize: 0x3C }
  - { offset: 0x8AA8, size: 0x8, addend: 0x0, symName: __ZNSt3__125uniform_real_distributionIdEclB8ne190102INS_26linear_congruential_engineIjLj48271ELj0ELj2147483647EEEEEdRT_, symObjAddr: 0x5FC, symBinAddr: 0x100004F94, symSize: 0x30 }
  - { offset: 0x8AE3, size: 0x8, addend: 0x0, symName: __ZNSt3__16vectorIjNS_9allocatorIjEEEC2B8ne190102Ev, symObjAddr: 0x62C, symBinAddr: 0x100004FC4, symSize: 0x4C }
  - { offset: 0x8B1A, size: 0x8, addend: 0x0, symName: __ZNSt3__117__compressed_pairIPjNS_9allocatorIjEEEC1B8ne190102IDnNS_18__default_init_tagEEEOT_OT0_, symObjAddr: 0x678, symBinAddr: 0x100005010, symSize: 0x3C }
  - { offset: 0x8B70, size: 0x8, addend: 0x0, symName: __ZNSt3__117__compressed_pairIPjNS_9allocatorIjEEEC2B8ne190102IDnNS_18__default_init_tagEEEOT_OT0_, symObjAddr: 0x6C4, symBinAddr: 0x10000505C, symSize: 0x40 }
  - { offset: 0x8BC6, size: 0x8, addend: 0x0, symName: __ZNSt3__122__compressed_pair_elemIPjLi0ELb0EEC2B8ne190102IDnTnNS_9enable_ifIXntsr7is_sameIS2_u7__decayIT_EEE5valueEiE4typeELi0EEEOS5_, symObjAddr: 0x704, symBinAddr: 0x10000509C, symSize: 0x1C }
  - { offset: 0x8C0B, size: 0x8, addend: 0x0, symName: __ZNSt3__122__compressed_pair_elemINS_9allocatorIjEELi1ELb1EEC2B8ne190102ENS_18__default_init_tagE, symObjAddr: 0x720, symBinAddr: 0x1000050B8, symSize: 0x2C }
  - { offset: 0x8C3D, size: 0x8, addend: 0x0, symName: __ZNSt3__19allocatorIjEC2B8ne190102Ev, symObjAddr: 0x74C, symBinAddr: 0x1000050E4, symSize: 0x2C }
  - { offset: 0x8C65, size: 0x8, addend: 0x0, symName: __ZNSt3__116__non_trivial_ifILb1ENS_9allocatorIjEEEC2B8ne190102Ev, symObjAddr: 0x778, symBinAddr: 0x100005110, symSize: 0x14 }
  - { offset: 0x8C8D, size: 0x8, addend: 0x0, symName: __ZNSt3__16vectorIjNS_9allocatorIjEEED2B8ne190102Ev, symObjAddr: 0x78C, symBinAddr: 0x100005124, symSize: 0x44 }
  - { offset: 0x8CB5, size: 0x8, addend: 0x0, symName: __ZNSt3__16vectorIjNS_9allocatorIjEEE16__destroy_vectorC1B8ne190102ERS3_, symObjAddr: 0x7D0, symBinAddr: 0x100005168, symSize: 0x34 }
  - { offset: 0x8CEC, size: 0x8, addend: 0x0, symName: __ZNSt3__16vectorIjNS_9allocatorIjEEE16__destroy_vectorclB8ne190102Ev, symObjAddr: 0x804, symBinAddr: 0x10000519C, symSize: 0x88 }
  - { offset: 0x8D10, size: 0x8, addend: 0x0, symName: __ZNSt3__16vectorIjNS_9allocatorIjEEE16__destroy_vectorC2B8ne190102ERS3_, symObjAddr: 0x88C, symBinAddr: 0x100005224, symSize: 0x20 }
  - { offset: 0x8D47, size: 0x8, addend: 0x0, symName: __ZNSt3__16vectorIjNS_9allocatorIjEEE7__clearB8ne190102Ev, symObjAddr: 0x8AC, symBinAddr: 0x100005244, symSize: 0x28 }
  - { offset: 0x8D6B, size: 0x8, addend: 0x0, symName: __ZNKSt3__16vectorIjNS_9allocatorIjEEE17__annotate_deleteB8ne190102Ev, symObjAddr: 0x8D4, symBinAddr: 0x10000526C, symSize: 0x10 }
  - { offset: 0x8D8F, size: 0x8, addend: 0x0, symName: __ZNSt3__116allocator_traitsINS_9allocatorIjEEE10deallocateB8ne190102ERS2_Pjm, symObjAddr: 0x8E4, symBinAddr: 0x10000527C, symSize: 0x34 }
  - { offset: 0x8DD0, size: 0x8, addend: 0x0, symName: __ZNSt3__16vectorIjNS_9allocatorIjEEE7__allocB8ne190102Ev, symObjAddr: 0x918, symBinAddr: 0x1000052B0, symSize: 0x28 }
  - { offset: 0x8DF4, size: 0x8, addend: 0x0, symName: __ZNKSt3__16vectorIjNS_9allocatorIjEEE8capacityB8ne190102Ev, symObjAddr: 0x940, symBinAddr: 0x1000052D8, symSize: 0x40 }
  - { offset: 0x8E18, size: 0x8, addend: 0x0, symName: __ZNSt3__16vectorIjNS_9allocatorIjEEE22__base_destruct_at_endB8ne190102EPj, symObjAddr: 0x980, symBinAddr: 0x100005318, symSize: 0x88 }
  - { offset: 0x8E5A, size: 0x8, addend: 0x0, symName: __ZNSt3__116allocator_traitsINS_9allocatorIjEEE7destroyB8ne190102IjTnNS_9enable_ifIXsr13__has_destroyIS2_PT_EE5valueEiE4typeELi0EEEvRS2_S7_, symObjAddr: 0xA08, symBinAddr: 0x1000053A0, symSize: 0x2C }
  - { offset: 0x8E9B, size: 0x8, addend: 0x0, symName: __ZNSt3__19allocatorIjE7destroyB8ne190102EPj, symObjAddr: 0xA48, symBinAddr: 0x1000053E0, symSize: 0x14 }
  - { offset: 0x8ECD, size: 0x8, addend: 0x0, symName: __ZNSt3__19allocatorIjE10deallocateB8ne190102EPjm, symObjAddr: 0xA5C, symBinAddr: 0x1000053F4, symSize: 0x40 }
  - { offset: 0x8F0D, size: 0x8, addend: 0x0, symName: __ZNSt3__117__compressed_pairIPjNS_9allocatorIjEEE6secondB8ne190102Ev, symObjAddr: 0xB24, symBinAddr: 0x1000054BC, symSize: 0x24 }
  - { offset: 0x8F31, size: 0x8, addend: 0x0, symName: __ZNSt3__122__compressed_pair_elemINS_9allocatorIjEELi1ELb1EE5__getB8ne190102Ev, symObjAddr: 0xB48, symBinAddr: 0x1000054E0, symSize: 0x14 }
  - { offset: 0x8F55, size: 0x8, addend: 0x0, symName: __ZNKSt3__16vectorIjNS_9allocatorIjEEE9__end_capB8ne190102Ev, symObjAddr: 0xB5C, symBinAddr: 0x1000054F4, symSize: 0x28 }
  - { offset: 0x8F79, size: 0x8, addend: 0x0, symName: __ZNKSt3__117__compressed_pairIPjNS_9allocatorIjEEE5firstB8ne190102Ev, symObjAddr: 0xB84, symBinAddr: 0x10000551C, symSize: 0x24 }
  - { offset: 0x8F9D, size: 0x8, addend: 0x0, symName: __ZNKSt3__122__compressed_pair_elemIPjLi0ELb0EE5__getB8ne190102Ev, symObjAddr: 0xBA8, symBinAddr: 0x100005540, symSize: 0x14 }
  - { offset: 0x8FC1, size: 0x8, addend: 0x0, symName: __ZNSt3__126linear_congruential_engineIjLj48271ELj0ELj2147483647EEC1B8ne190102Ej, symObjAddr: 0xBBC, symBinAddr: 0x100005554, symSize: 0x34 }
  - { offset: 0x8FF8, size: 0x8, addend: 0x0, symName: __ZNSt3__126linear_congruential_engineIjLj48271ELj0ELj2147483647EEC2B8ne190102Ej, symObjAddr: 0xBF0, symBinAddr: 0x100005588, symSize: 0x34 }
  - { offset: 0x902F, size: 0x8, addend: 0x0, symName: __ZNSt3__124uniform_int_distributionIjEC2B8ne190102Ejj, symObjAddr: 0xC24, symBinAddr: 0x1000055BC, symSize: 0x3C }
  - { offset: 0x9073, size: 0x8, addend: 0x0, symName: __ZNSt3__124uniform_int_distributionIjE10param_typeC1B8ne190102Ejj, symObjAddr: 0xC60, symBinAddr: 0x1000055F8, symSize: 0x3C }
  - { offset: 0x90B7, size: 0x8, addend: 0x0, symName: __ZNSt3__124uniform_int_distributionIjE10param_typeC2B8ne190102Ejj, symObjAddr: 0xC9C, symBinAddr: 0x100005634, symSize: 0x2C }
  - { offset: 0x90FB, size: 0x8, addend: 0x0, symName: __ZNKSt3__124uniform_int_distributionIjE10param_type1bB8ne190102Ev, symObjAddr: 0xE3C, symBinAddr: 0x1000057D4, symSize: 0x18 }
  - { offset: 0x911F, size: 0x8, addend: 0x0, symName: __ZNKSt3__124uniform_int_distributionIjE10param_type1aB8ne190102Ev, symObjAddr: 0xE54, symBinAddr: 0x1000057EC, symSize: 0x18 }
  - { offset: 0x9143, size: 0x8, addend: 0x0, symName: __ZNSt3__125__independent_bits_engineINS_26linear_congruential_engineIjLj48271ELj0ELj2147483647EEEjEC1ERS2_m, symObjAddr: 0xE6C, symBinAddr: 0x100005804, symSize: 0x3C }
  - { offset: 0x9187, size: 0x8, addend: 0x0, symName: __ZNSt3__125__independent_bits_engineINS_26linear_congruential_engineIjLj48271ELj0ELj2147483647EEEjEclB8ne190102Ev, symObjAddr: 0xEA8, symBinAddr: 0x100005840, symSize: 0x24 }
  - { offset: 0x91AC, size: 0x8, addend: 0x0, symName: __ZNSt3__114numeric_limitsIjE3maxB8ne190102Ev, symObjAddr: 0xEF0, symBinAddr: 0x100005888, symSize: 0x14 }
  - { offset: 0x91BF, size: 0x8, addend: 0x0, symName: __ZNSt3__125__independent_bits_engineINS_26linear_congruential_engineIjLj48271ELj0ELj2147483647EEEjEC2ERS2_m, symObjAddr: 0xF04, symBinAddr: 0x10000589C, symSize: 0x25C }
  - { offset: 0x9203, size: 0x8, addend: 0x0, symName: __ZNSt3__125__independent_bits_engineINS_26linear_congruential_engineIjLj48271ELj0ELj2147483647EEEjE6__evalENS_17integral_constantIbLb1EEE, symObjAddr: 0x1160, symBinAddr: 0x100005AF8, symSize: 0x1D0 }
  - { offset: 0x92BE, size: 0x8, addend: 0x0, symName: __ZNSt3__126linear_congruential_engineIjLj48271ELj0ELj2147483647EE3minB8ne190102Ev, symObjAddr: 0x1330, symBinAddr: 0x100005CC8, symSize: 0x8 }
  - { offset: 0x92D2, size: 0x8, addend: 0x0, symName: __ZNSt3__123__libcpp_numeric_limitsIjLb1EE3maxB8ne190102Ev, symObjAddr: 0x1338, symBinAddr: 0x100005CD0, symSize: 0x8 }
  - { offset: 0x92E5, size: 0x8, addend: 0x0, symName: __ZNSt3__16vectorIjNS_9allocatorIjEEE9__end_capB8ne190102Ev, symObjAddr: 0x1340, symBinAddr: 0x100005CD8, symSize: 0x28 }
  - { offset: 0x930E, size: 0x8, addend: 0x0, symName: __ZNSt3__16vectorIjNS_9allocatorIjEEE22__construct_one_at_endB8ne190102IJjEEEvDpOT_, symObjAddr: 0x1368, symBinAddr: 0x100005D00, symSize: 0x90 }
  - { offset: 0x935B, size: 0x8, addend: 0x0, symName: __ZNSt3__16vectorIjNS_9allocatorIjEEE21__push_back_slow_pathIjEEPjOT_, symObjAddr: 0x13F8, symBinAddr: 0x100005D90, symSize: 0xE8 }
  - { offset: 0x93B5, size: 0x8, addend: 0x0, symName: __ZNSt3__117__compressed_pairIPjNS_9allocatorIjEEE5firstB8ne190102Ev, symObjAddr: 0x14E0, symBinAddr: 0x100005E78, symSize: 0x24 }
  - { offset: 0x93D9, size: 0x8, addend: 0x0, symName: __ZNSt3__122__compressed_pair_elemIPjLi0ELb0EE5__getB8ne190102Ev, symObjAddr: 0x1504, symBinAddr: 0x100005E9C, symSize: 0x14 }
  - { offset: 0x9416, size: 0x8, addend: 0x0, symName: __ZNSt3__16vectorIjNS_9allocatorIjEEE21_ConstructTransactionC1B8ne190102ERS3_m, symObjAddr: 0x1518, symBinAddr: 0x100005EB0, symSize: 0x3C }
  - { offset: 0x945C, size: 0x8, addend: 0x0, symName: __ZNSt3__116allocator_traitsINS_9allocatorIjEEE9constructB8ne190102IjJjETnNS_9enable_ifIXsr15__has_constructIS2_PT_DpT0_EE5valueEiE4typeELi0EEEvRS2_S7_DpOS8_, symObjAddr: 0x1554, symBinAddr: 0x100005EEC, symSize: 0x34 }
  - { offset: 0x94B7, size: 0x8, addend: 0x0, symName: __ZNSt3__16vectorIjNS_9allocatorIjEEE21_ConstructTransactionD1B8ne190102Ev, symObjAddr: 0x1588, symBinAddr: 0x100005F20, symSize: 0x2C }
  - { offset: 0x94DF, size: 0x8, addend: 0x0, symName: __ZNSt3__16vectorIjNS_9allocatorIjEEE21_ConstructTransactionC2B8ne190102ERS3_m, symObjAddr: 0x15B4, symBinAddr: 0x100005F4C, symSize: 0x44 }
  - { offset: 0x9525, size: 0x8, addend: 0x0, symName: __ZNSt3__19allocatorIjE9constructB8ne190102IjJjEEEvPT_DpOT0_, symObjAddr: 0x15F8, symBinAddr: 0x100005F90, symSize: 0x28 }
  - { offset: 0x9579, size: 0x8, addend: 0x0, symName: __ZNSt3__16vectorIjNS_9allocatorIjEEE21_ConstructTransactionD2B8ne190102Ev, symObjAddr: 0x1620, symBinAddr: 0x100005FB8, symSize: 0x20 }
  - { offset: 0x95A1, size: 0x8, addend: 0x0, symName: __ZNKSt3__16vectorIjNS_9allocatorIjEEE11__recommendB8ne190102Em, symObjAddr: 0x1640, symBinAddr: 0x100005FD8, symSize: 0xAC }
  - { offset: 0x95F4, size: 0x8, addend: 0x0, symName: __ZNKSt3__16vectorIjNS_9allocatorIjEEE4sizeB8ne190102Ev, symObjAddr: 0x16EC, symBinAddr: 0x100006084, symSize: 0x28 }
  - { offset: 0x9619, size: 0x8, addend: 0x0, symName: __ZNSt3__114__split_bufferIjRNS_9allocatorIjEEEC1EmmS3_, symObjAddr: 0x1714, symBinAddr: 0x1000060AC, symSize: 0x44 }
  - { offset: 0x966D, size: 0x8, addend: 0x0, symName: __ZNSt3__16vectorIjNS_9allocatorIjEEE26__swap_out_circular_bufferERNS_14__split_bufferIjRS2_EE, symObjAddr: 0x1758, symBinAddr: 0x1000060F0, symSize: 0x11C }
  - { offset: 0x96B2, size: 0x8, addend: 0x0, symName: __ZNSt3__114__split_bufferIjRNS_9allocatorIjEEED1Ev, symObjAddr: 0x1874, symBinAddr: 0x10000620C, symSize: 0x2C }
  - { offset: 0x96DC, size: 0x8, addend: 0x0, symName: __ZNKSt3__16vectorIjNS_9allocatorIjEEE8max_sizeEv, symObjAddr: 0x18A0, symBinAddr: 0x100006238, symSize: 0x60 }
  - { offset: 0x9702, size: 0x8, addend: 0x0, symName: __ZNKSt3__16vectorIjNS_9allocatorIjEEE20__throw_length_errorB8ne190102Ev, symObjAddr: 0x1900, symBinAddr: 0x100006298, symSize: 0x1C }
  - { offset: 0x9730, size: 0x8, addend: 0x0, symName: __ZNSt3__116allocator_traitsINS_9allocatorIjEEE8max_sizeB8ne190102IS2_TnNS_9enable_ifIXsr14__has_max_sizeIKT_EE5valueEiE4typeELi0EEEmRKS2_, symObjAddr: 0x1974, symBinAddr: 0x10000630C, symSize: 0x24 }
  - { offset: 0x9762, size: 0x8, addend: 0x0, symName: __ZNKSt3__16vectorIjNS_9allocatorIjEEE7__allocB8ne190102Ev, symObjAddr: 0x1998, symBinAddr: 0x100006330, symSize: 0x28 }
  - { offset: 0x9787, size: 0x8, addend: 0x0, symName: __ZNSt3__114numeric_limitsIlE3maxB8ne190102Ev, symObjAddr: 0x19C0, symBinAddr: 0x100006358, symSize: 0x14 }
  - { offset: 0x97AE, size: 0x8, addend: 0x0, symName: __ZNKSt3__16__lessIvvEclB8ne190102ImmEEbRKT_RKT0_, symObjAddr: 0x1A28, symBinAddr: 0x1000063C0, symSize: 0x30 }
  - { offset: 0x9800, size: 0x8, addend: 0x0, symName: __ZNKSt3__19allocatorIjE8max_sizeB8ne190102Ev, symObjAddr: 0x1A58, symBinAddr: 0x1000063F0, symSize: 0x14 }
  - { offset: 0x9824, size: 0x8, addend: 0x0, symName: __ZNKSt3__117__compressed_pairIPjNS_9allocatorIjEEE6secondB8ne190102Ev, symObjAddr: 0x1A6C, symBinAddr: 0x100006404, symSize: 0x24 }
  - { offset: 0x9848, size: 0x8, addend: 0x0, symName: __ZNKSt3__122__compressed_pair_elemINS_9allocatorIjEELi1ELb1EE5__getB8ne190102Ev, symObjAddr: 0x1A90, symBinAddr: 0x100006428, symSize: 0x14 }
  - { offset: 0x986D, size: 0x8, addend: 0x0, symName: __ZNSt3__123__libcpp_numeric_limitsIlLb1EE3maxB8ne190102Ev, symObjAddr: 0x1AA4, symBinAddr: 0x10000643C, symSize: 0x8 }
  - { offset: 0x9880, size: 0x8, addend: 0x0, symName: __ZNSt12length_errorC1B8ne190102EPKc, symObjAddr: 0x1B10, symBinAddr: 0x1000064A8, symSize: 0x34 }
  - { offset: 0x98B6, size: 0x8, addend: 0x0, symName: __ZNSt12length_errorC2B8ne190102EPKc, symObjAddr: 0x1B44, symBinAddr: 0x1000064DC, symSize: 0x44 }
  - { offset: 0x98ED, size: 0x8, addend: 0x0, symName: __ZNSt3__114__split_bufferIjRNS_9allocatorIjEEEC2EmmS3_, symObjAddr: 0x1BDC, symBinAddr: 0x100006574, symSize: 0xCC }
  - { offset: 0x995E, size: 0x8, addend: 0x0, symName: __ZNSt3__117__compressed_pairIPjRNS_9allocatorIjEEEC1B8ne190102IDnS4_EEOT_OT0_, symObjAddr: 0x1CA8, symBinAddr: 0x100006640, symSize: 0x3C }
  - { offset: 0x99B4, size: 0x8, addend: 0x0, symName: __ZNSt3__114__split_bufferIjRNS_9allocatorIjEEE7__allocB8ne190102Ev, symObjAddr: 0x1D24, symBinAddr: 0x1000066BC, symSize: 0x28 }
  - { offset: 0x99D8, size: 0x8, addend: 0x0, symName: __ZNSt3__114__split_bufferIjRNS_9allocatorIjEEE9__end_capB8ne190102Ev, symObjAddr: 0x1D4C, symBinAddr: 0x1000066E4, symSize: 0x28 }
  - { offset: 0x99FC, size: 0x8, addend: 0x0, symName: __ZNSt3__117__compressed_pairIPjRNS_9allocatorIjEEEC2B8ne190102IDnS4_EEOT_OT0_, symObjAddr: 0x1D74, symBinAddr: 0x10000670C, symSize: 0x48 }
  - { offset: 0x9A52, size: 0x8, addend: 0x0, symName: __ZNSt3__122__compressed_pair_elemIRNS_9allocatorIjEELi1ELb0EEC2B8ne190102IS3_TnNS_9enable_ifIXntsr7is_sameIS4_u7__decayIT_EEE5valueEiE4typeELi0EEEOS7_, symObjAddr: 0x1DBC, symBinAddr: 0x100006754, symSize: 0x20 }
  - { offset: 0x9A97, size: 0x8, addend: 0x0, symName: __ZNSt3__19allocatorIjE8allocateB8ne190102Em, symObjAddr: 0x1DDC, symBinAddr: 0x100006774, symSize: 0x54 }
  - { offset: 0x9AC9, size: 0x8, addend: 0x0, symName: __ZNSt3__117__compressed_pairIPjRNS_9allocatorIjEEE6secondB8ne190102Ev, symObjAddr: 0x1EB0, symBinAddr: 0x100006848, symSize: 0x28 }
  - { offset: 0x9AED, size: 0x8, addend: 0x0, symName: __ZNSt3__122__compressed_pair_elemIRNS_9allocatorIjEELi1ELb0EE5__getB8ne190102Ev, symObjAddr: 0x1ED8, symBinAddr: 0x100006870, symSize: 0x18 }
  - { offset: 0x9B11, size: 0x8, addend: 0x0, symName: __ZNSt3__117__compressed_pairIPjRNS_9allocatorIjEEE5firstB8ne190102Ev, symObjAddr: 0x1EF0, symBinAddr: 0x100006888, symSize: 0x24 }
  - { offset: 0x9B35, size: 0x8, addend: 0x0, symName: __ZNKSt3__16vectorIjNS_9allocatorIjEEE14__annotate_newB8ne190102Em, symObjAddr: 0x1F9C, symBinAddr: 0x100006934, symSize: 0x14 }
  - { offset: 0x9B69, size: 0x8, addend: 0x0, symName: __ZNSt3__114__split_bufferIjRNS_9allocatorIjEEED2Ev, symObjAddr: 0x1FB0, symBinAddr: 0x100006948, symSize: 0x84 }
  - { offset: 0x9B93, size: 0x8, addend: 0x0, symName: __ZNSt3__114__split_bufferIjRNS_9allocatorIjEEE5clearB8ne190102Ev, symObjAddr: 0x2034, symBinAddr: 0x1000069CC, symSize: 0x28 }
  - { offset: 0x9BB7, size: 0x8, addend: 0x0, symName: __ZNKSt3__114__split_bufferIjRNS_9allocatorIjEEE8capacityB8ne190102Ev, symObjAddr: 0x205C, symBinAddr: 0x1000069F4, symSize: 0x40 }
  - { offset: 0x9BDB, size: 0x8, addend: 0x0, symName: __ZNSt3__114__split_bufferIjRNS_9allocatorIjEEE17__destruct_at_endB8ne190102EPj, symObjAddr: 0x209C, symBinAddr: 0x100006A34, symSize: 0x2C }
  - { offset: 0x9C0D, size: 0x8, addend: 0x0, symName: __ZNSt3__114__split_bufferIjRNS_9allocatorIjEEE17__destruct_at_endB8ne190102EPjNS_17integral_constantIbLb0EEE, symObjAddr: 0x20C8, symBinAddr: 0x100006A60, symSize: 0x7C }
  - { offset: 0x9C4B, size: 0x8, addend: 0x0, symName: __ZNKSt3__114__split_bufferIjRNS_9allocatorIjEEE9__end_capB8ne190102Ev, symObjAddr: 0x2144, symBinAddr: 0x100006ADC, symSize: 0x28 }
  - { offset: 0x9C6F, size: 0x8, addend: 0x0, symName: __ZNKSt3__117__compressed_pairIPjRNS_9allocatorIjEEE5firstB8ne190102Ev, symObjAddr: 0x216C, symBinAddr: 0x100006B04, symSize: 0x24 }
  - { offset: 0x9C93, size: 0x8, addend: 0x0, symName: __ZNSt3__126linear_congruential_engineIjLj48271ELj0ELj2147483647EE4seedB8ne190102ENS_17integral_constantIbLb0EEENS2_IbLb1EEEj, symObjAddr: 0x2190, symBinAddr: 0x100006B28, symSize: 0x6C }
  - { offset: 0x9CDF, size: 0x8, addend: 0x0, symName: __ZNSt3__18__lce_taILy48271ELy0ELy2147483647ELy4294967295ELNS_14__lce_alg_typeE2EE4nextB8ne190102Ej, symObjAddr: 0x21FC, symBinAddr: 0x100006B94, symSize: 0x84 }
  - { offset: 0x9D55, size: 0x8, addend: 0x0, symName: __ZNSt3__111char_traitsIcE6lengthB8ne190102EPKc, symObjAddr: 0x2464, symBinAddr: 0x100006DFC, symSize: 0x24 }
  - { offset: 0x9D95, size: 0x8, addend: 0x0, symName: __ZNKSt3__113basic_ostreamIcNS_11char_traitsIcEEE6sentrycvbB8ne190102Ev, symObjAddr: 0x2488, symBinAddr: 0x100006E20, symSize: 0x1C }
  - { offset: 0x9DB9, size: 0x8, addend: 0x0, symName: __ZNSt3__119ostreambuf_iteratorIcNS_11char_traitsIcEEEC1B8ne190102ERNS_13basic_ostreamIcS2_EE, symObjAddr: 0x26B8, symBinAddr: 0x100007050, symSize: 0x34 }
  - { offset: 0x9DF0, size: 0x8, addend: 0x0, symName: __ZNKSt3__18ios_base5flagsB8ne190102Ev, symObjAddr: 0x26EC, symBinAddr: 0x100007084, symSize: 0x18 }
  - { offset: 0x9E16, size: 0x8, addend: 0x0, symName: __ZNKSt3__19basic_iosIcNS_11char_traitsIcEEE4fillB8ne190102Ev, symObjAddr: 0x2704, symBinAddr: 0x10000709C, symSize: 0x64 }
  - { offset: 0x9E3A, size: 0x8, addend: 0x0, symName: __ZNKSt3__119ostreambuf_iteratorIcNS_11char_traitsIcEEE6failedB8ne190102Ev, symObjAddr: 0x2768, symBinAddr: 0x100007100, symSize: 0x20 }
  - { offset: 0x9E5E, size: 0x8, addend: 0x0, symName: __ZNSt3__19basic_iosIcNS_11char_traitsIcEEE8setstateB8ne190102Ej, symObjAddr: 0x2788, symBinAddr: 0x100007120, symSize: 0x2C }
  - { offset: 0x9E92, size: 0x8, addend: 0x0, symName: __ZNKSt3__18ios_base5widthB8ne190102Ev, symObjAddr: 0x27B4, symBinAddr: 0x10000714C, symSize: 0x18 }
  - { offset: 0x9EB8, size: 0x8, addend: 0x0, symName: __ZNSt3__115basic_streambufIcNS_11char_traitsIcEEE5sputnB8ne190102EPKcl, symObjAddr: 0x27CC, symBinAddr: 0x100007164, symSize: 0x3C }
  - { offset: 0x9EF8, size: 0x8, addend: 0x0, symName: __ZNSt3__112basic_stringIcNS_11char_traitsIcEENS_9allocatorIcEEEC1B8ne190102Emc, symObjAddr: 0x2808, symBinAddr: 0x1000071A0, symSize: 0x3C }
  - { offset: 0x9F3E, size: 0x8, addend: 0x0, symName: __ZNKSt3__112basic_stringIcNS_11char_traitsIcEENS_9allocatorIcEEE4dataB8ne190102Ev, symObjAddr: 0x2844, symBinAddr: 0x1000071DC, symSize: 0x28 }
  - { offset: 0x9F63, size: 0x8, addend: 0x0, symName: __ZNSt3__18ios_base5widthB8ne190102El, symObjAddr: 0x286C, symBinAddr: 0x100007204, symSize: 0x2C }
  - { offset: 0x9FA7, size: 0x8, addend: 0x0, symName: __ZNSt3__112basic_stringIcNS_11char_traitsIcEENS_9allocatorIcEEEC2B8ne190102Emc, symObjAddr: 0x2898, symBinAddr: 0x100007230, symSize: 0x4C }
  - { offset: 0x9FED, size: 0x8, addend: 0x0, symName: __ZNSt3__117__compressed_pairINS_12basic_stringIcNS_11char_traitsIcEENS_9allocatorIcEEE5__repES5_EC1B8ne190102INS_18__default_init_tagESA_EEOT_OT0_, symObjAddr: 0x28E4, symBinAddr: 0x10000727C, symSize: 0x3C }
  - { offset: 0xA043, size: 0x8, addend: 0x0, symName: __ZNSt3__117__compressed_pairINS_12basic_stringIcNS_11char_traitsIcEENS_9allocatorIcEEE5__repES5_EC2B8ne190102INS_18__default_init_tagESA_EEOT_OT0_, symObjAddr: 0x2920, symBinAddr: 0x1000072B8, symSize: 0x3C }
  - { offset: 0xA099, size: 0x8, addend: 0x0, symName: __ZNSt3__122__compressed_pair_elemINS_12basic_stringIcNS_11char_traitsIcEENS_9allocatorIcEEE5__repELi0ELb0EEC2B8ne190102ENS_18__default_init_tagE, symObjAddr: 0x295C, symBinAddr: 0x1000072F4, symSize: 0x14 }
  - { offset: 0xA0CB, size: 0x8, addend: 0x0, symName: __ZNSt3__122__compressed_pair_elemINS_9allocatorIcEELi1ELb1EEC2B8ne190102ENS_18__default_init_tagE, symObjAddr: 0x2970, symBinAddr: 0x100007308, symSize: 0x2C }
  - { offset: 0xA0FD, size: 0x8, addend: 0x0, symName: __ZNSt3__19allocatorIcEC2B8ne190102Ev, symObjAddr: 0x299C, symBinAddr: 0x100007334, symSize: 0x2C }
  - { offset: 0xA125, size: 0x8, addend: 0x0, symName: __ZNSt3__116__non_trivial_ifILb1ENS_9allocatorIcEEEC2B8ne190102Ev, symObjAddr: 0x29C8, symBinAddr: 0x100007360, symSize: 0x14 }
  - { offset: 0xA14D, size: 0x8, addend: 0x0, symName: __ZNKSt3__112basic_stringIcNS_11char_traitsIcEENS_9allocatorIcEEE13__get_pointerB8ne190102Ev, symObjAddr: 0x29F0, symBinAddr: 0x100007388, symSize: 0x54 }
  - { offset: 0xA171, size: 0x8, addend: 0x0, symName: __ZNKSt3__112basic_stringIcNS_11char_traitsIcEENS_9allocatorIcEEE9__is_longB8ne190102Ev, symObjAddr: 0x2A44, symBinAddr: 0x1000073DC, symSize: 0x34 }
  - { offset: 0xA195, size: 0x8, addend: 0x0, symName: __ZNKSt3__112basic_stringIcNS_11char_traitsIcEENS_9allocatorIcEEE18__get_long_pointerB8ne190102Ev, symObjAddr: 0x2A78, symBinAddr: 0x100007410, symSize: 0x28 }
  - { offset: 0xA1B9, size: 0x8, addend: 0x0, symName: __ZNKSt3__112basic_stringIcNS_11char_traitsIcEENS_9allocatorIcEEE19__get_short_pointerB8ne190102Ev, symObjAddr: 0x2AA0, symBinAddr: 0x100007438, symSize: 0x28 }
  - { offset: 0xA1DD, size: 0x8, addend: 0x0, symName: __ZNKSt3__117__compressed_pairINS_12basic_stringIcNS_11char_traitsIcEENS_9allocatorIcEEE5__repES5_E5firstB8ne190102Ev, symObjAddr: 0x2AC8, symBinAddr: 0x100007460, symSize: 0x24 }
  - { offset: 0xA201, size: 0x8, addend: 0x0, symName: __ZNKSt3__122__compressed_pair_elemINS_12basic_stringIcNS_11char_traitsIcEENS_9allocatorIcEEE5__repELi0ELb0EE5__getB8ne190102Ev, symObjAddr: 0x2AEC, symBinAddr: 0x100007484, symSize: 0x14 }
  - { offset: 0xA226, size: 0x8, addend: 0x0, symName: __ZNSt3__114pointer_traitsIPKcE10pointer_toB8ne190102ERS1_, symObjAddr: 0x2B00, symBinAddr: 0x100007498, symSize: 0x14 }
  - { offset: 0xA248, size: 0x8, addend: 0x0, symName: __ZNSt3__119ostreambuf_iteratorIcNS_11char_traitsIcEEEC2B8ne190102ERNS_13basic_ostreamIcS2_EE, symObjAddr: 0x2B14, symBinAddr: 0x1000074AC, symSize: 0x54 }
  - { offset: 0xA27E, size: 0x8, addend: 0x0, symName: __ZNKSt3__19basic_iosIcNS_11char_traitsIcEEE5rdbufB8ne190102Ev, symObjAddr: 0x2B68, symBinAddr: 0x100007500, symSize: 0x24 }
  - { offset: 0xA2A2, size: 0x8, addend: 0x0, symName: __ZNKSt3__18ios_base5rdbufB8ne190102Ev, symObjAddr: 0x2B8C, symBinAddr: 0x100007524, symSize: 0x18 }
  - { offset: 0xA2C6, size: 0x8, addend: 0x0, symName: __ZNKSt3__118_SentinelValueFillINS_11char_traitsIcEEE8__is_setB8ne190102Ev, symObjAddr: 0x2BA4, symBinAddr: 0x10000753C, symSize: 0x38 }
  - { offset: 0xA2EA, size: 0x8, addend: 0x0, symName: __ZNKSt3__19basic_iosIcNS_11char_traitsIcEEE5widenB8ne190102Ec, symObjAddr: 0x2BDC, symBinAddr: 0x100007574, symSize: 0x80 }
  - { offset: 0xA31D, size: 0x8, addend: 0x0, symName: __ZNSt3__118_SentinelValueFillINS_11char_traitsIcEEEaSB8ne190102Ei, symObjAddr: 0x2C5C, symBinAddr: 0x1000075F4, symSize: 0x20 }
  - { offset: 0xA350, size: 0x8, addend: 0x0, symName: __ZNKSt3__118_SentinelValueFillINS_11char_traitsIcEEE5__getB8ne190102Ev, symObjAddr: 0x2C7C, symBinAddr: 0x100007614, symSize: 0x18 }
  - { offset: 0xA375, size: 0x8, addend: 0x0, symName: __ZNSt3__111char_traitsIcE3eofB8ne190102Ev, symObjAddr: 0x2C94, symBinAddr: 0x10000762C, symSize: 0x8 }
  - { offset: 0xA3C5, size: 0x8, addend: 0x0, symName: __ZNKSt3__15ctypeIcE5widenB8ne190102Ec, symObjAddr: 0x2CC8, symBinAddr: 0x100007660, symSize: 0x34 }
  - { offset: 0xA3F8, size: 0x8, addend: 0x0, symName: __ZNSt3__18ios_base8setstateB8ne190102Ej, symObjAddr: 0x2CFC, symBinAddr: 0x100007694, symSize: 0x34 }
  - { offset: 0xA42D, size: 0x8, addend: 0x0, symName: __ZNSt3__125uniform_real_distributionIdEC2B8ne190102Edd, symObjAddr: 0x2D54, symBinAddr: 0x1000076EC, symSize: 0x3C }
  - { offset: 0xA471, size: 0x8, addend: 0x0, symName: __ZNSt3__125uniform_real_distributionIdE10param_typeC1B8ne190102Edd, symObjAddr: 0x2D90, symBinAddr: 0x100007728, symSize: 0x3C }
  - { offset: 0xA4B5, size: 0x8, addend: 0x0, symName: __ZNSt3__125uniform_real_distributionIdE10param_typeC2B8ne190102Edd, symObjAddr: 0x2DCC, symBinAddr: 0x100007764, symSize: 0x2C }
  - { offset: 0xA4F9, size: 0x8, addend: 0x0, symName: __ZNSt3__125uniform_real_distributionIdEclINS_26linear_congruential_engineIjLj48271ELj0ELj2147483647EEEEEdRT_RKNS1_10param_typeE, symObjAddr: 0x2DF8, symBinAddr: 0x100007790, symSize: 0x6C }
  - { offset: 0xA542, size: 0x8, addend: 0x0, symName: __ZNKSt3__125uniform_real_distributionIdE10param_type1bB8ne190102Ev, symObjAddr: 0x2E64, symBinAddr: 0x1000077FC, symSize: 0x18 }
  - { offset: 0xA566, size: 0x8, addend: 0x0, symName: __ZNKSt3__125uniform_real_distributionIdE10param_type1aB8ne190102Ev, symObjAddr: 0x2E7C, symBinAddr: 0x100007814, symSize: 0x18 }
  - { offset: 0xA58B, size: 0x8, addend: 0x0, symName: __ZNSt3__126linear_congruential_engineIjLj48271ELj0ELj2147483647EE3maxB8ne190102Ev, symObjAddr: 0x2FAC, symBinAddr: 0x100007944, symSize: 0x8 }
...
